target datalayout = "e-m:e-p270:32:32-p271:32:32-p272:64:64-i64:64-i128:128-f80:128-n8:16:32:64-S128"
target triple = "x86_64-pc-linux-gnu"

%struct.string_list = type { ptr, i64, i64, i8, ptr }
%struct.string_list_item = type { ptr, ptr }
%struct.string_list_iterator = type { ptr, i64 }

; Function Attrs: nounwind uwtable
define internal ptr @iterate_ref_map(ptr noundef %0) #0 {
  %2 = alloca ptr, align 8
  %3 = alloca ptr, align 8
  %4 = alloca ptr, align 8
  %5 = alloca i32, align 4
  store ptr %0, ptr %3, align 8, !tbaa !83
  call void @llvm.lifetime.start.p0(i64 8, ptr %4) #9
  %6 = load ptr, ptr %3, align 8, !tbaa !83
  store ptr %6, ptr %4, align 8, !tbaa !84
  %7 = load ptr, ptr %4, align 8, !tbaa !84
  %8 = getelementptr inbounds nuw %struct.string_list_iterator, ptr %7, i32 0, i32 1
  %9 = load i64, ptr %8, align 8, !tbaa !42
  %10 = load ptr, ptr %4, align 8, !tbaa !84
  %11 = getelementptr inbounds nuw %struct.string_list_iterator, ptr %10, i32 0, i32 0
  %12 = load ptr, ptr %11, align 8, !tbaa !40
  %13 = getelementptr inbounds nuw %struct.string_list, ptr %12, i32 0, i32 1
  %14 = load i64, ptr %13, align 8, !tbaa !73
  %15 = icmp uge i64 %9, %14
  br i1 %15, label %16, label %17

16:                                               ; preds = %1
  store ptr null, ptr %2, align 8
  store i32 1, ptr %5, align 4
  br label %30

17:                                               ; preds = %1
  %18 = load ptr, ptr %4, align 8, !tbaa !84
  %19 = getelementptr inbounds nuw %struct.string_list_iterator, ptr %18, i32 0, i32 0
  %20 = load ptr, ptr %19, align 8, !tbaa !40
  %21 = getelementptr inbounds nuw %struct.string_list, ptr %20, i32 0, i32 0
  %22 = load ptr, ptr %21, align 8, !tbaa !74
  %23 = load ptr, ptr %4, align 8, !tbaa !84
  %24 = getelementptr inbounds nuw %struct.string_list_iterator, ptr %23, i32 0, i32 1
  %25 = load i64, ptr %24, align 8, !tbaa !42
  %26 = add i64 %25, 1
  store i64 %26, ptr %24, align 8, !tbaa !42
  %27 = getelementptr inbounds nuw %struct.string_list_item, ptr %22, i64 %25
  %28 = getelementptr inbounds nuw %struct.string_list_item, ptr %27, i32 0, i32 1
  %29 = load ptr, ptr %28, align 8, !tbaa !30
  store ptr %29, ptr %2, align 8
  store i32 1, ptr %5, align 4
  br label %30

30:                                               ; preds = %17, %16
  call void @llvm.lifetime.end.p0(i64 8, ptr %4) #9
  %31 = load ptr, ptr %2, align 8
  ret ptr %31
}