; Function Attrs: mustprogress nofree norecurse nosync nounwind willreturn memory(read, argmem: readwrite, inaccessiblemem: none) uwtable
define internal ptr @iterate_ref_map(ptr noundef captures(none) %0) #8 {
  %2 = getelementptr inbounds nuw i8, ptr %0, i64 8
  %3 = load i64, ptr %2, align 8, !tbaa !37
  %4 = load ptr, ptr %0, align 8, !tbaa !34
  %5 = getelementptr inbounds nuw i8, ptr %4, i64 8
  %6 = load i64, ptr %5, align 8, !tbaa !68
  %.not = icmp ult i64 %3, %6
  br i1 %.not, label %7, label %12

7:                                                ; preds = %1
  %8 = load ptr, ptr %4, align 8, !tbaa !69
  %9 = add nuw i64 %3, 1
  store i64 %9, ptr %2, align 8, !tbaa !37
  %10 = getelementptr inbounds nuw %struct.string_list_item, ptr %8, i64 %3, i32 1
  %11 = load ptr, ptr %10, align 8, !tbaa !32
  br label %12

12:                                               ; preds = %1, %7
  %.0 = phi ptr [ %11, %7 ], [ null, %1 ]
  ret ptr %.0
}